; ModuleID = '44/1233.c'
source_filename = "44/1233.c"
target datalayout = "e-m:e-p270:32:32-p271:32:32-p272:64:64-i64:64-f80:128-n8:16:32:64-S128"
target triple = "x86_64-pc-linux-gnu"

@.str = private unnamed_addr constant [3 x i8] c"%d\00", align 1
@.str.1 = private unnamed_addr constant [4 x i8] c"%d\0A\00", align 1

; Function Attrs: noinline nounwind uwtable
define dso_local i32 @reverse(i32 %0) #0 {
  %2 = alloca i32, align 4
  %3 = alloca i32, align 4
  %4 = alloca i32, align 4
  %5 = alloca i32, align 4
  store i32 %0, i32* %2, align 4
  store i32 0, i32* %3, align 4
  store i32 0, i32* %4, align 4
  store i32 0, i32* %5, align 4
  %6 = load i32, i32* %2, align 4
  %7 = icmp eq i32 %6, 0
  br i1 %7, label %8, label %10

8:                                                ; preds = %1
  %9 = load i32, i32* %2, align 4
  store i32 %9, i32* %5, align 4
  br label %52

10:                                               ; preds = %1
  %11 = load i32, i32* %2, align 4
  %12 = icmp slt i32 %11, 0
  br i1 %12, label %13, label %33

13:                                               ; preds = %10
  %14 = load i32, i32* %2, align 4
  %15 = sub nsw i32 0, %14
  store i32 %15, i32* %3, align 4
  br label %16

16:                                               ; preds = %25, %13
  %17 = load i32, i32* %3, align 4
  %18 = srem i32 %17, 10
  store i32 %18, i32* %4, align 4
  %19 = load i32, i32* %5, align 4
  %20 = load i32, i32* %4, align 4
  %21 = add nsw i32 %19, %20
  %22 = mul nsw i32 %21, 10
  store i32 %22, i32* %5, align 4
  %23 = load i32, i32* %3, align 4
  %24 = sdiv i32 %23, 10
  store i32 %24, i32* %3, align 4
  br label %25

25:                                               ; preds = %16
  %26 = load i32, i32* %3, align 4
  %27 = icmp sgt i32 %26, 9
  br i1 %27, label %16, label %28

28:                                               ; preds = %25
  %29 = load i32, i32* %5, align 4
  %30 = sub nsw i32 0, %29
  %31 = load i32, i32* %3, align 4
  %32 = sub nsw i32 %30, %31
  store i32 %32, i32* %5, align 4
  br label %51

33:                                               ; preds = %10
  %34 = load i32, i32* %2, align 4
  store i32 %34, i32* %3, align 4
  br label %35

35:                                               ; preds = %44, %33
  %36 = load i32, i32* %3, align 4
  %37 = srem i32 %36, 10
  store i32 %37, i32* %4, align 4
  %38 = load i32, i32* %5, align 4
  %39 = load i32, i32* %4, align 4
  %40 = add nsw i32 %38, %39
  %41 = mul nsw i32 %40, 10
  store i32 %41, i32* %5, align 4
  %42 = load i32, i32* %3, align 4
  %43 = sdiv i32 %42, 10
  store i32 %43, i32* %3, align 4
  br label %44

44:                                               ; preds = %35
  %45 = load i32, i32* %3, align 4
  %46 = icmp sgt i32 %45, 9
  br i1 %46, label %35, label %47

47:                                               ; preds = %44
  %48 = load i32, i32* %5, align 4
  %49 = load i32, i32* %3, align 4
  %50 = add nsw i32 %48, %49
  store i32 %50, i32* %5, align 4
  br label %51

51:                                               ; preds = %47, %28
  br label %52

52:                                               ; preds = %51, %8
  %53 = load i32, i32* %5, align 4
  ret i32 %53
}

; Function Attrs: noinline nounwind uwtable
define dso_local i32 @main() #0 {
  %1 = alloca i32, align 4
  %2 = alloca i32, align 4
  %3 = alloca i32, align 4
  store i32 0, i32* %1, align 4
  store i32 1, i32* %3, align 4
  br label %4

4:                                                ; preds = %12, %0
  %5 = load i32, i32* %3, align 4
  %6 = icmp sle i32 %5, 6
  br i1 %6, label %7, label %15

7:                                                ; preds = %4
  %8 = call i32 (i8*, ...) @__isoc99_scanf(i8* getelementptr inbounds ([3 x i8], [3 x i8]* @.str, i64 0, i64 0), i32* %2)
  %9 = load i32, i32* %2, align 4
  %10 = call i32 @reverse(i32 %9)
  %11 = call i32 (i8*, ...) @printf(i8* getelementptr inbounds ([4 x i8], [4 x i8]* @.str.1, i64 0, i64 0), i32 %10)
  br label %12

12:                                               ; preds = %7
  %13 = load i32, i32* %3, align 4
  %14 = add nsw i32 %13, 1
  store i32 %14, i32* %3, align 4
  br label %4

15:                                               ; preds = %4
  ret i32 0
}

declare dso_local i32 @__isoc99_scanf(i8*, ...) #1

declare dso_local i32 @printf(i8*, ...) #1


!llvm.module.flags = !{!0}
!llvm.ident = !{!1}

!0 = !{i32 1, !"wchar_size", i32 4}
!1 = !{!"clang version 10.0.0-4ubuntu1 "}
